target datalayout = "e-m:e-p270:32:32-p271:32:32-p272:64:64-i64:64-i128:128-f80:128-n8:16:32:64-S128"
target triple = "x86_64-pc-linux-gnu"

%"class.icu_77::SpoofImpl" = type <{ %"class.icu_77::UObject", %"class.icu_77::IcuCApiHelper", i32, ptr, ptr, ptr, i32, [4 x i8] }>
%"class.icu_77::UObject" = type { ptr }
%"class.icu_77::IcuCApiHelper" = type { i32 }
%"class.icu_77::SpoofData" = type { ptr, i8, ptr, i32, %"struct.std::atomic", ptr, ptr, ptr }
%"struct.std::atomic" = type { %"struct.std::__atomic_base" }
%"struct.std::__atomic_base" = type { i32 }
%"struct.icu_77::SpoofDataHeader" = type { i32, [4 x i8], i32, i32, i32, i32, i32, i32, i32, [15 x i32] }

; Function Attrs: mustprogress uwtable
define noundef signext i8 @_ZNK6icu_779SpoofData19validateDataVersionER10UErrorCode(ptr noundef nonnull align 8 dereferenceable(56) %0, ptr noundef nonnull align 4 dereferenceable(4) %1) #1 align 2 {
  %3 = alloca i8, align 1
  %4 = alloca ptr, align 8
  %5 = alloca ptr, align 8
  store ptr %0, ptr %4, align 8, !tbaa !8
  store ptr %1, ptr %5, align 8, !tbaa !10
  %6 = load ptr, ptr %4, align 8
  %7 = load ptr, ptr %5, align 8, !tbaa !10
  %8 = load i32, ptr %7, align 4, !tbaa !30
  %9 = call noundef signext i8 @_ZL9U_FAILURE10UErrorCode(i32 noundef %8)
  %10 = icmp ne i8 %9, 0
  br i1 %10, label %53, label %11

11:                                               ; preds = %2
  %12 = getelementptr inbounds nuw %"class.icu_77::SpoofData", ptr %6, i32 0, i32 0
  %13 = load ptr, ptr %12, align 8, !tbaa !35
  %14 = icmp eq ptr %13, null
  br i1 %14, label %53, label %15

15:                                               ; preds = %11
  %16 = getelementptr inbounds nuw %"class.icu_77::SpoofData", ptr %6, i32 0, i32 0
  %17 = load ptr, ptr %16, align 8, !tbaa !35
  %18 = getelementptr inbounds nuw %"struct.icu_77::SpoofDataHeader", ptr %17, i32 0, i32 0
  %19 = load i32, ptr %18, align 4, !tbaa !44
  %20 = icmp ne i32 %19, 944111087
  br i1 %20, label %53, label %21

21:                                               ; preds = %15
  %22 = getelementptr inbounds nuw %"class.icu_77::SpoofData", ptr %6, i32 0, i32 0
  %23 = load ptr, ptr %22, align 8, !tbaa !35
  %24 = getelementptr inbounds nuw %"struct.icu_77::SpoofDataHeader", ptr %23, i32 0, i32 1
  %25 = getelementptr inbounds [4 x i8], ptr %24, i64 0, i64 0
  %26 = load i8, ptr %25, align 4, !tbaa !46
  %27 = zext i8 %26 to i32
  %28 = icmp ne i32 %27, 2
  br i1 %28, label %53, label %29

29:                                               ; preds = %21
  %30 = getelementptr inbounds nuw %"class.icu_77::SpoofData", ptr %6, i32 0, i32 0
  %31 = load ptr, ptr %30, align 8, !tbaa !35
  %32 = getelementptr inbounds nuw %"struct.icu_77::SpoofDataHeader", ptr %31, i32 0, i32 1
  %33 = getelementptr inbounds [4 x i8], ptr %32, i64 0, i64 1
  %34 = load i8, ptr %33, align 1, !tbaa !46
  %35 = zext i8 %34 to i32
  %36 = icmp ne i32 %35, 0
  br i1 %36, label %53, label %37

37:                                               ; preds = %29
  %38 = getelementptr inbounds nuw %"class.icu_77::SpoofData", ptr %6, i32 0, i32 0
  %39 = load ptr, ptr %38, align 8, !tbaa !35
  %40 = getelementptr inbounds nuw %"struct.icu_77::SpoofDataHeader", ptr %39, i32 0, i32 1
  %41 = getelementptr inbounds [4 x i8], ptr %40, i64 0, i64 2
  %42 = load i8, ptr %41, align 2, !tbaa !46
  %43 = zext i8 %42 to i32
  %44 = icmp ne i32 %43, 0
  br i1 %44, label %53, label %45

45:                                               ; preds = %37
  %46 = getelementptr inbounds nuw %"class.icu_77::SpoofData", ptr %6, i32 0, i32 0
  %47 = load ptr, ptr %46, align 8, !tbaa !35
  %48 = getelementptr inbounds nuw %"struct.icu_77::SpoofDataHeader", ptr %47, i32 0, i32 1
  %49 = getelementptr inbounds [4 x i8], ptr %48, i64 0, i64 3
  %50 = load i8, ptr %49, align 1, !tbaa !46
  %51 = zext i8 %50 to i32
  %52 = icmp ne i32 %51, 0
  br i1 %52, label %53, label %55

53:                                               ; preds = %45, %37, %29, %21, %15, %11, %2
  %54 = load ptr, ptr %5, align 8, !tbaa !10
  store i32 3, ptr %54, align 4, !tbaa !30
  store i8 0, ptr %3, align 1
  br label %56

55:                                               ; preds = %45
  store i8 1, ptr %3, align 1
  br label %56

56:                                               ; preds = %55, %53
  %57 = load i8, ptr %3, align 1
  ret i8 %57
}

; Function Attrs: inlinehint mustprogress nounwind uwtable
define internal noundef signext i8 @_ZL9U_FAILURE10UErrorCode(i32 noundef %0) #2 {
  %2 = alloca i32, align 4
  store i32 %0, ptr %2, align 4, !tbaa !30
  %3 = load i32, ptr %2, align 4, !tbaa !30
  %4 = icmp sgt i32 %3, 0
  %5 = zext i1 %4 to i8
  ret i8 %5
}

; Function Attrs: mustprogress nounwind uwtable
define linkonce_odr noundef ptr @_ZN6icu_7713IcuCApiHelperI13USpoofCheckerNS_9SpoofImplELi944111087EE8validateEPKS1_R10UErrorCode(ptr noundef %0, ptr noundef nonnull align 4 dereferenceable(4) %1) #0 comdat align 2 {
  %3 = alloca ptr, align 8
  %4 = alloca ptr, align 8
  %5 = alloca ptr, align 8
  %6 = alloca ptr, align 8
  %7 = alloca i32, align 4
  store ptr %0, ptr %4, align 8, !tbaa !33
  store ptr %1, ptr %5, align 8, !tbaa !10
  %8 = load ptr, ptr %5, align 8, !tbaa !10
  %9 = load i32, ptr %8, align 4, !tbaa !30
  %10 = call noundef signext i8 @_ZL9U_FAILURE10UErrorCode(i32 noundef %9)
  %11 = icmp ne i8 %10, 0
  br i1 %11, label %12, label %13

12:                                               ; preds = %2
  store ptr null, ptr %3, align 8
  br label %34

13:                                               ; preds = %2
  %14 = load ptr, ptr %4, align 8, !tbaa !33
  %15 = icmp eq ptr %14, null
  br i1 %15, label %16, label %18

16:                                               ; preds = %13
  %17 = load ptr, ptr %5, align 8, !tbaa !10
  store i32 1, ptr %17, align 4, !tbaa !30
  store ptr null, ptr %3, align 8
  br label %34

18:                                               ; preds = %13
  call void @llvm.lifetime.start.p0(i64 8, ptr %6) #15
  %19 = load ptr, ptr %4, align 8, !tbaa !33
  store ptr %19, ptr %6, align 8, !tbaa !3
  %20 = load ptr, ptr %6, align 8, !tbaa !3
  %21 = icmp eq ptr %20, null
  br i1 %21, label %24, label %22

22:                                               ; preds = %18
  %23 = getelementptr inbounds i8, ptr %20, i64 8
  br label %24

24:                                               ; preds = %22, %18
  %25 = phi ptr [ %23, %22 ], [ null, %18 ]
  %26 = getelementptr inbounds nuw %"class.icu_77::IcuCApiHelper", ptr %25, i32 0, i32 0
  %27 = load i32, ptr %26, align 4, !tbaa !25
  %28 = icmp ne i32 %27, 944111087
  br i1 %28, label %29, label %31

29:                                               ; preds = %24
  %30 = load ptr, ptr %5, align 8, !tbaa !10
  store i32 3, ptr %30, align 4, !tbaa !30
  store ptr null, ptr %3, align 8
  store i32 1, ptr %7, align 4
  br label %33

31:                                               ; preds = %24
  %32 = load ptr, ptr %6, align 8, !tbaa !3
  store ptr %32, ptr %3, align 8
  store i32 1, ptr %7, align 4
  br label %33

33:                                               ; preds = %31, %29
  call void @llvm.lifetime.end.p0(i64 8, ptr %6) #15
  br label %34

34:                                               ; preds = %33, %16, %12
  %35 = load ptr, ptr %3, align 8
  ret ptr %35
}

; Function Attrs: mustprogress uwtable
define noundef ptr @_ZN6icu_779SpoofImpl12validateThisEPK13USpoofCheckerR10UErrorCode(ptr noundef %0, ptr noundef nonnull align 4 dereferenceable(4) %1) #1 align 2 {
  %3 = alloca ptr, align 8
  %4 = alloca ptr, align 8
  %5 = alloca ptr, align 8
  %6 = alloca ptr, align 8
  %7 = alloca i32, align 4
  store ptr %0, ptr %4, align 8, !tbaa !33
  store ptr %1, ptr %5, align 8, !tbaa !10
  call void @llvm.lifetime.start.p0(i64 8, ptr %6) #15
  %8 = load ptr, ptr %4, align 8, !tbaa !33
  %9 = load ptr, ptr %5, align 8, !tbaa !10
  %10 = call noundef ptr @_ZN6icu_7713IcuCApiHelperI13USpoofCheckerNS_9SpoofImplELi944111087EE8validateEPKS1_R10UErrorCode(ptr noundef %8, ptr noundef nonnull align 4 dereferenceable(4) %9)
  store ptr %10, ptr %6, align 8, !tbaa !3
  %11 = load ptr, ptr %5, align 8, !tbaa !10
  %12 = load i32, ptr %11, align 4, !tbaa !30
  %13 = call noundef signext i8 @_ZL9U_FAILURE10UErrorCode(i32 noundef %12)
  %14 = icmp ne i8 %13, 0
  br i1 %14, label %15, label %16

15:                                               ; preds = %2
  store ptr null, ptr %3, align 8
  store i32 1, ptr %7, align 4
  br label %31

16:                                               ; preds = %2
  %17 = load ptr, ptr %6, align 8, !tbaa !3
  %18 = getelementptr inbounds nuw %"class.icu_77::SpoofImpl", ptr %17, i32 0, i32 3
  %19 = load ptr, ptr %18, align 8, !tbaa !13
  %20 = icmp ne ptr %19, null
  br i1 %20, label %21, label %29

21:                                               ; preds = %16
  %22 = load ptr, ptr %6, align 8, !tbaa !3
  %23 = getelementptr inbounds nuw %"class.icu_77::SpoofImpl", ptr %22, i32 0, i32 3
  %24 = load ptr, ptr %23, align 8, !tbaa !13
  %25 = load ptr, ptr %5, align 8, !tbaa !10
  %26 = call noundef signext i8 @_ZNK6icu_779SpoofData19validateDataVersionER10UErrorCode(ptr noundef nonnull align 8 dereferenceable(56) %24, ptr noundef nonnull align 4 dereferenceable(4) %25)
  %27 = icmp ne i8 %26, 0
  br i1 %27, label %29, label %28

28:                                               ; preds = %21
  store ptr null, ptr %3, align 8
  store i32 1, ptr %7, align 4
  br label %31

29:                                               ; preds = %21, %16
  %30 = load ptr, ptr %6, align 8, !tbaa !3
  store ptr %30, ptr %3, align 8
  store i32 1, ptr %7, align 4
  br label %31

31:                                               ; preds = %29, %28, %15
  call void @llvm.lifetime.end.p0(i64 8, ptr %6) #15
  %32 = load ptr, ptr %3, align 8
  ret ptr %32
}

; Function Attrs: mustprogress uwtable
define noundef ptr @_ZN6icu_779SpoofImpl12validateThisEP13USpoofCheckerR10UErrorCode(ptr noundef %0, ptr noundef nonnull align 4 dereferenceable(4) %1) #1 align 2 {
  %3 = alloca ptr, align 8
  %4 = alloca ptr, align 8
  store ptr %0, ptr %3, align 8, !tbaa !33
  store ptr %1, ptr %4, align 8, !tbaa !10
  %5 = load ptr, ptr %3, align 8, !tbaa !33
  %6 = load ptr, ptr %4, align 8, !tbaa !10
  %7 = call noundef ptr @_ZN6icu_779SpoofImpl12validateThisEPK13USpoofCheckerR10UErrorCode(ptr noundef %5, ptr noundef nonnull align 4 dereferenceable(4) %6)
  ret ptr %7
}