; Function Attrs: mustprogress nofree norecurse nosync nounwind willreturn memory(read, argmem: readwrite, inaccessiblemem: none) uwtable
define noundef ptr @_ZN6icu_779SpoofImpl12validateThisEP13USpoofCheckerR10UErrorCode(ptr noundef readonly %0, ptr noundef nonnull align 4 captures(none) dereferenceable(4) %1) local_unnamed_addr #9 align 2 {
  %3 = load i32, ptr %1, align 4, !tbaa !19
  %4 = icmp slt i32 %3, 1
  br i1 %4, label %5, label %_ZN6icu_779SpoofImpl12validateThisEPK13USpoofCheckerR10UErrorCode.exit

5:                                                ; preds = %2
  %6 = icmp eq ptr %0, null
  br i1 %6, label %_ZNK6icu_779SpoofData19validateDataVersionER10UErrorCode.exit.sink.split.i, label %7

7:                                                ; preds = %5
  %8 = getelementptr inbounds nuw i8, ptr %0, i64 8
  %9 = load i32, ptr %8, align 4, !tbaa !3
  %.not9.i.i = icmp eq i32 %9, 944111087
  br i1 %.not9.i.i, label %_ZN6icu_7713IcuCApiHelperI13USpoofCheckerNS_9SpoofImplELi944111087EE8validateEPKS1_R10UErrorCode.exit.i, label %_ZNK6icu_779SpoofData19validateDataVersionER10UErrorCode.exit.sink.split.i

_ZN6icu_7713IcuCApiHelperI13USpoofCheckerNS_9SpoofImplELi944111087EE8validateEPKS1_R10UErrorCode.exit.i: ; preds = %7
  %10 = getelementptr inbounds nuw i8, ptr %0, i64 16
  %11 = load ptr, ptr %10, align 8, !tbaa !23
  %.not9.i = icmp eq ptr %11, null
  br i1 %.not9.i, label %_ZN6icu_779SpoofImpl12validateThisEPK13USpoofCheckerR10UErrorCode.exit, label %12

12:                                               ; preds = %_ZN6icu_7713IcuCApiHelperI13USpoofCheckerNS_9SpoofImplELi944111087EE8validateEPKS1_R10UErrorCode.exit.i
  %13 = load ptr, ptr %11, align 8, !tbaa !29
  %14 = icmp eq ptr %13, null
  br i1 %14, label %_ZNK6icu_779SpoofData19validateDataVersionER10UErrorCode.exit.sink.split.i, label %15

15:                                               ; preds = %12
  %16 = load i32, ptr %13, align 4, !tbaa !36
  %.not4.i.i = icmp eq i32 %16, 944111087
  br i1 %.not4.i.i, label %17, label %_ZNK6icu_779SpoofData19validateDataVersionER10UErrorCode.exit.sink.split.i

17:                                               ; preds = %15
  %18 = getelementptr inbounds nuw i8, ptr %13, i64 4
  %19 = load i8, ptr %18, align 4, !tbaa !38
  %.not5.i.i = icmp eq i8 %19, 2
  br i1 %.not5.i.i, label %20, label %_ZNK6icu_779SpoofData19validateDataVersionER10UErrorCode.exit.sink.split.i

20:                                               ; preds = %17
  %21 = getelementptr inbounds nuw i8, ptr %13, i64 5
  %22 = load i8, ptr %21, align 1, !tbaa !38
  %.not6.i.i = icmp eq i8 %22, 0
  br i1 %.not6.i.i, label %23, label %_ZNK6icu_779SpoofData19validateDataVersionER10UErrorCode.exit.sink.split.i

23:                                               ; preds = %20
  %24 = getelementptr inbounds nuw i8, ptr %13, i64 6
  %25 = load i8, ptr %24, align 2, !tbaa !38
  %.not7.i.i = icmp eq i8 %25, 0
  br i1 %.not7.i.i, label %26, label %_ZNK6icu_779SpoofData19validateDataVersionER10UErrorCode.exit.sink.split.i

26:                                               ; preds = %23
  %27 = getelementptr inbounds nuw i8, ptr %13, i64 7
  %28 = load i8, ptr %27, align 1, !tbaa !38
  %.not8.i.i = icmp eq i8 %28, 0
  br i1 %.not8.i.i, label %_ZN6icu_779SpoofImpl12validateThisEPK13USpoofCheckerR10UErrorCode.exit, label %_ZNK6icu_779SpoofData19validateDataVersionER10UErrorCode.exit.sink.split.i

_ZNK6icu_779SpoofData19validateDataVersionER10UErrorCode.exit.sink.split.i: ; preds = %26, %23, %20, %17, %15, %12, %7, %5
  %.sink.i.sink.i = phi i32 [ 1, %5 ], [ 3, %7 ], [ 3, %12 ], [ 3, %15 ], [ 3, %17 ], [ 3, %20 ], [ 3, %23 ], [ 3, %26 ]
  store i32 %.sink.i.sink.i, ptr %1, align 4, !tbaa !19
  br label %_ZN6icu_779SpoofImpl12validateThisEPK13USpoofCheckerR10UErrorCode.exit

_ZN6icu_779SpoofImpl12validateThisEPK13USpoofCheckerR10UErrorCode.exit: ; preds = %2, %_ZN6icu_7713IcuCApiHelperI13USpoofCheckerNS_9SpoofImplELi944111087EE8validateEPKS1_R10UErrorCode.exit.i, %26, %_ZNK6icu_779SpoofData19validateDataVersionER10UErrorCode.exit.sink.split.i
  %.0.i = phi ptr [ %0, %26 ], [ %0, %_ZN6icu_7713IcuCApiHelperI13USpoofCheckerNS_9SpoofImplELi944111087EE8validateEPKS1_R10UErrorCode.exit.i ], [ null, %2 ], [ null, %_ZNK6icu_779SpoofData19validateDataVersionER10UErrorCode.exit.sink.split.i ]
  ret ptr %.0.i
}